; Function Attrs: nounwind uwtable
define internal range(i32 0, 2) i32 @thread_peak_reset_ctl(ptr noundef %0, ptr readnone captures(none) %1, i64 %2, ptr noundef readnone captures(address_is_null) %3, ptr noundef readnone captures(address_is_null) %4, ptr noundef readnone captures(address_is_null) %5, i64 noundef %6) #0 {
  %8 = icmp ne ptr %3, null
  %9 = icmp ne ptr %4, null
  %or.cond = or i1 %8, %9
  %10 = icmp ne ptr %5, null
  %or.cond3 = or i1 %or.cond, %10
  %11 = icmp ne i64 %6, 0
  %or.cond5 = or i1 %or.cond3, %11
  br i1 %or.cond5, label %13, label %12

12:                                               ; preds = %7
  tail call void @je_peak_event_zero(ptr noundef %0) #15
  br label %13

13:                                               ; preds = %7, %12
  %.0 = phi i32 [ 0, %12 ], [ 1, %7 ]
  ret i32 %.0
}